; Function Attrs: nounwind uwtable
define internal ptr @complete_from_versioned_query(ptr noundef %0, i32 noundef %1) #0 {
  %3 = load ptr, ptr @completion_vquery, align 8
  %4 = load i32, ptr getelementptr inbounds nuw (i8, ptr @pset, i64 332), align 4
  br label %5

5:                                                ; preds = %5, %2
  %.0 = phi ptr [ %3, %2 ], [ %8, %5 ]
  %6 = load i32, ptr %.0, align 8
  %7 = icmp slt i32 %4, %6
  %8 = getelementptr inbounds nuw i8, ptr %.0, i64 16
  br i1 %7, label %5, label %9, !llvm.loop !22

9:                                                ; preds = %5
  %10 = getelementptr inbounds nuw i8, ptr %.0, i64 8
  %11 = load ptr, ptr %10, align 8
  %12 = icmp eq ptr %11, null
  br i1 %12, label %16, label %13

13:                                               ; preds = %9
  %14 = load ptr, ptr @completion_charpp, align 8
  %.b8 = load i1, ptr @completion_verbatim, align 1
  %15 = tail call fastcc ptr @_complete_from_query(ptr noundef nonnull %11, ptr noundef null, ptr noundef %14, i1 noundef zeroext %.b8, ptr noundef %0, i32 noundef %1)
  br label %16

16:                                               ; preds = %9, %13
  %.06 = phi ptr [ %15, %13 ], [ null, %9 ]
  ret ptr %.06
}